; ModuleID = '50/2528.c'
source_filename = "50/2528.c"
target datalayout = "e-m:e-p270:32:32-p271:32:32-p272:64:64-i64:64-f80:128-n8:16:32:64-S128"
target triple = "x86_64-pc-linux-gnu"

@.str = private unnamed_addr constant [3 x i8] c"%d\00", align 1
@.str.1 = private unnamed_addr constant [4 x i8] c"%d\0A\00", align 1

; Function Attrs: noinline nounwind uwtable
define dso_local i32 @main() #0 {
  %1 = alloca i32, align 4
  %2 = alloca i32, align 4
  %3 = alloca i32, align 4
  %4 = alloca i32, align 4
  %5 = alloca i32, align 4
  %6 = alloca [13 x i32], align 16
  store i32 0, i32* %1, align 4
  %7 = call i32 (i8*, ...) @__isoc99_scanf(i8* getelementptr inbounds ([3 x i8], [3 x i8]* @.str, i64 0, i64 0), i32* %2)
  %8 = getelementptr inbounds [13 x i32], [13 x i32]* %6, i64 0, i64 1
  store i32 0, i32* %8, align 4
  %9 = getelementptr inbounds [13 x i32], [13 x i32]* %6, i64 0, i64 2
  store i32 31, i32* %9, align 8
  %10 = getelementptr inbounds [13 x i32], [13 x i32]* %6, i64 0, i64 3
  store i32 28, i32* %10, align 4
  %11 = getelementptr inbounds [13 x i32], [13 x i32]* %6, i64 0, i64 4
  store i32 31, i32* %11, align 16
  %12 = getelementptr inbounds [13 x i32], [13 x i32]* %6, i64 0, i64 5
  store i32 30, i32* %12, align 4
  %13 = getelementptr inbounds [13 x i32], [13 x i32]* %6, i64 0, i64 6
  store i32 31, i32* %13, align 8
  %14 = getelementptr inbounds [13 x i32], [13 x i32]* %6, i64 0, i64 7
  store i32 30, i32* %14, align 4
  %15 = getelementptr inbounds [13 x i32], [13 x i32]* %6, i64 0, i64 8
  store i32 31, i32* %15, align 16
  %16 = getelementptr inbounds [13 x i32], [13 x i32]* %6, i64 0, i64 9
  store i32 31, i32* %16, align 4
  %17 = getelementptr inbounds [13 x i32], [13 x i32]* %6, i64 0, i64 10
  store i32 30, i32* %17, align 8
  %18 = getelementptr inbounds [13 x i32], [13 x i32]* %6, i64 0, i64 11
  store i32 31, i32* %18, align 4
  %19 = getelementptr inbounds [13 x i32], [13 x i32]* %6, i64 0, i64 12
  store i32 30, i32* %19, align 16
  store i32 1, i32* %3, align 4
  br label %20

20:                                               ; preds = %38, %0
  %21 = load i32, i32* %3, align 4
  %22 = icmp sle i32 %21, 12
  br i1 %22, label %23, label %41

23:                                               ; preds = %20
  %24 = load i32, i32* %2, align 4
  %25 = load i32, i32* %3, align 4
  %26 = sext i32 %25 to i64
  %27 = getelementptr inbounds [13 x i32], [13 x i32]* %6, i64 0, i64 %26
  %28 = load i32, i32* %27, align 4
  %29 = add nsw i32 %24, %28
  store i32 %29, i32* %2, align 4
  %30 = load i32, i32* %2, align 4
  %31 = srem i32 %30, 7
  store i32 %31, i32* %5, align 4
  %32 = load i32, i32* %5, align 4
  %33 = icmp eq i32 %32, 0
  br i1 %33, label %34, label %37

34:                                               ; preds = %23
  %35 = load i32, i32* %3, align 4
  %36 = call i32 (i8*, ...) @printf(i8* getelementptr inbounds ([4 x i8], [4 x i8]* @.str.1, i64 0, i64 0), i32 %35)
  br label %37

37:                                               ; preds = %34, %23
  br label %38

38:                                               ; preds = %37
  %39 = load i32, i32* %3, align 4
  %40 = add nsw i32 %39, 1
  store i32 %40, i32* %3, align 4
  br label %20

41:                                               ; preds = %20
  ret i32 0
}

declare dso_local i32 @__isoc99_scanf(i8*, ...) #1

declare dso_local i32 @printf(i8*, ...) #1


!llvm.module.flags = !{!0}
!llvm.ident = !{!1}

!0 = !{i32 1, !"wchar_size", i32 4}
!1 = !{!"clang version 10.0.0-4ubuntu1 "}
