; ModuleID = 'source-C-CXX/49/2528.c'
source_filename = "source-C-CXX/49/2528.c"
target datalayout = "e-m:e-p270:32:32-p271:32:32-p272:64:64-i64:64-f80:128-n8:16:32:64-S128"
target triple = "x86_64-pc-linux-gnu"

@.str = private unnamed_addr constant [3 x i8] c"%d\00", align 1
@.str.1 = private unnamed_addr constant [4 x i8] c"%d\0A\00", align 1

; Function Attrs: nofree nounwind sspstrong uwtable
define dso_local i32 @main() local_unnamed_addr #0 {
  %1 = alloca i32, align 4
  %2 = bitcast i32* %1 to i8*
  call void @llvm.lifetime.start.p0i8(i64 4, i8* nonnull %2) #3
  %3 = call i32 (i8*, ...) @__isoc99_scanf(i8* getelementptr inbounds ([3 x i8], [3 x i8]* @.str, i64 0, i64 0), i32* nonnull %1)
  %4 = load i32, i32* %1, align 4, !tbaa !5
  %5 = srem i32 %4, 7
  %6 = icmp eq i32 %5, 0
  br i1 %6, label %7, label %10

7:                                                ; preds = %0
  %8 = call i32 (i8*, ...) @printf(i8* nonnull dereferenceable(1) getelementptr inbounds ([4 x i8], [4 x i8]* @.str.1, i64 0, i64 0), i32 1)
  %9 = load i32, i32* %1, align 4, !tbaa !5
  br label %10

10:                                               ; preds = %0, %7
  %11 = phi i32 [ %4, %0 ], [ %9, %7 ]
  %12 = add nsw i32 %11, 31
  store i32 %12, i32* %1, align 4, !tbaa !5
  %13 = srem i32 %12, 7
  %14 = icmp eq i32 %13, 0
  br i1 %14, label %15, label %18

15:                                               ; preds = %10
  %16 = call i32 (i8*, ...) @printf(i8* nonnull dereferenceable(1) getelementptr inbounds ([4 x i8], [4 x i8]* @.str.1, i64 0, i64 0), i32 2)
  %17 = load i32, i32* %1, align 4, !tbaa !5
  br label %18

18:                                               ; preds = %15, %10
  %19 = phi i32 [ %17, %15 ], [ %12, %10 ]
  %20 = add nsw i32 %19, 28
  store i32 %20, i32* %1, align 4, !tbaa !5
  %21 = srem i32 %20, 7
  %22 = icmp eq i32 %21, 0
  br i1 %22, label %23, label %26

23:                                               ; preds = %18
  %24 = call i32 (i8*, ...) @printf(i8* nonnull dereferenceable(1) getelementptr inbounds ([4 x i8], [4 x i8]* @.str.1, i64 0, i64 0), i32 3)
  %25 = load i32, i32* %1, align 4, !tbaa !5
  br label %26

26:                                               ; preds = %23, %18
  %27 = phi i32 [ %25, %23 ], [ %20, %18 ]
  %28 = add nsw i32 %27, 31
  store i32 %28, i32* %1, align 4, !tbaa !5
  %29 = srem i32 %28, 7
  %30 = icmp eq i32 %29, 0
  br i1 %30, label %31, label %34

31:                                               ; preds = %26
  %32 = call i32 (i8*, ...) @printf(i8* nonnull dereferenceable(1) getelementptr inbounds ([4 x i8], [4 x i8]* @.str.1, i64 0, i64 0), i32 4)
  %33 = load i32, i32* %1, align 4, !tbaa !5
  br label %34

34:                                               ; preds = %31, %26
  %35 = phi i32 [ %33, %31 ], [ %28, %26 ]
  %36 = add nsw i32 %35, 30
  store i32 %36, i32* %1, align 4, !tbaa !5
  %37 = srem i32 %36, 7
  %38 = icmp eq i32 %37, 0
  br i1 %38, label %39, label %42

39:                                               ; preds = %34
  %40 = call i32 (i8*, ...) @printf(i8* nonnull dereferenceable(1) getelementptr inbounds ([4 x i8], [4 x i8]* @.str.1, i64 0, i64 0), i32 5)
  %41 = load i32, i32* %1, align 4, !tbaa !5
  br label %42

42:                                               ; preds = %39, %34
  %43 = phi i32 [ %41, %39 ], [ %36, %34 ]
  %44 = add nsw i32 %43, 31
  store i32 %44, i32* %1, align 4, !tbaa !5
  %45 = srem i32 %44, 7
  %46 = icmp eq i32 %45, 0
  br i1 %46, label %47, label %50

47:                                               ; preds = %42
  %48 = call i32 (i8*, ...) @printf(i8* nonnull dereferenceable(1) getelementptr inbounds ([4 x i8], [4 x i8]* @.str.1, i64 0, i64 0), i32 6)
  %49 = load i32, i32* %1, align 4, !tbaa !5
  br label %50

50:                                               ; preds = %47, %42
  %51 = phi i32 [ %49, %47 ], [ %44, %42 ]
  %52 = add nsw i32 %51, 30
  store i32 %52, i32* %1, align 4, !tbaa !5
  %53 = srem i32 %52, 7
  %54 = icmp eq i32 %53, 0
  br i1 %54, label %55, label %58

55:                                               ; preds = %50
  %56 = call i32 (i8*, ...) @printf(i8* nonnull dereferenceable(1) getelementptr inbounds ([4 x i8], [4 x i8]* @.str.1, i64 0, i64 0), i32 7)
  %57 = load i32, i32* %1, align 4, !tbaa !5
  br label %58

58:                                               ; preds = %55, %50
  %59 = phi i32 [ %57, %55 ], [ %52, %50 ]
  %60 = add nsw i32 %59, 31
  store i32 %60, i32* %1, align 4, !tbaa !5
  %61 = srem i32 %60, 7
  %62 = icmp eq i32 %61, 0
  br i1 %62, label %63, label %66

63:                                               ; preds = %58
  %64 = call i32 (i8*, ...) @printf(i8* nonnull dereferenceable(1) getelementptr inbounds ([4 x i8], [4 x i8]* @.str.1, i64 0, i64 0), i32 8)
  %65 = load i32, i32* %1, align 4, !tbaa !5
  br label %66

66:                                               ; preds = %63, %58
  %67 = phi i32 [ %65, %63 ], [ %60, %58 ]
  %68 = add nsw i32 %67, 31
  store i32 %68, i32* %1, align 4, !tbaa !5
  %69 = srem i32 %68, 7
  %70 = icmp eq i32 %69, 0
  br i1 %70, label %71, label %74

71:                                               ; preds = %66
  %72 = call i32 (i8*, ...) @printf(i8* nonnull dereferenceable(1) getelementptr inbounds ([4 x i8], [4 x i8]* @.str.1, i64 0, i64 0), i32 9)
  %73 = load i32, i32* %1, align 4, !tbaa !5
  br label %74

74:                                               ; preds = %71, %66
  %75 = phi i32 [ %73, %71 ], [ %68, %66 ]
  %76 = add nsw i32 %75, 30
  store i32 %76, i32* %1, align 4, !tbaa !5
  %77 = srem i32 %76, 7
  %78 = icmp eq i32 %77, 0
  br i1 %78, label %79, label %82

79:                                               ; preds = %74
  %80 = call i32 (i8*, ...) @printf(i8* nonnull dereferenceable(1) getelementptr inbounds ([4 x i8], [4 x i8]* @.str.1, i64 0, i64 0), i32 10)
  %81 = load i32, i32* %1, align 4, !tbaa !5
  br label %82

82:                                               ; preds = %79, %74
  %83 = phi i32 [ %81, %79 ], [ %76, %74 ]
  %84 = add nsw i32 %83, 31
  store i32 %84, i32* %1, align 4, !tbaa !5
  %85 = srem i32 %84, 7
  %86 = icmp eq i32 %85, 0
  br i1 %86, label %87, label %90

87:                                               ; preds = %82
  %88 = call i32 (i8*, ...) @printf(i8* nonnull dereferenceable(1) getelementptr inbounds ([4 x i8], [4 x i8]* @.str.1, i64 0, i64 0), i32 11)
  %89 = load i32, i32* %1, align 4, !tbaa !5
  br label %90

90:                                               ; preds = %87, %82
  %91 = phi i32 [ %89, %87 ], [ %84, %82 ]
  %92 = add nsw i32 %91, 30
  store i32 %92, i32* %1, align 4, !tbaa !5
  %93 = srem i32 %92, 7
  %94 = icmp eq i32 %93, 0
  br i1 %94, label %95, label %97

95:                                               ; preds = %90
  %96 = call i32 (i8*, ...) @printf(i8* nonnull dereferenceable(1) getelementptr inbounds ([4 x i8], [4 x i8]* @.str.1, i64 0, i64 0), i32 12)
  br label %97

97:                                               ; preds = %95, %90
  call void @llvm.lifetime.end.p0i8(i64 4, i8* nonnull %2) #3
  ret i32 0
}

; Function Attrs: argmemonly mustprogress nofree nosync nounwind willreturn
declare void @llvm.lifetime.start.p0i8(i64 immarg, i8* nocapture) #1

; Function Attrs: nofree nounwind
declare noundef i32 @__isoc99_scanf(i8* nocapture noundef readonly, ...) local_unnamed_addr #2

; Function Attrs: nofree nounwind
declare noundef i32 @printf(i8* nocapture noundef readonly, ...) local_unnamed_addr #2

; Function Attrs: argmemonly mustprogress nofree nosync nounwind willreturn
declare void @llvm.lifetime.end.p0i8(i64 immarg, i8* nocapture) #1


!llvm.module.flags = !{!0, !1, !2, !3}
!llvm.ident = !{!4}

!0 = !{i32 1, !"wchar_size", i32 4}
!1 = !{i32 7, !"PIC Level", i32 2}
!2 = !{i32 7, !"PIE Level", i32 2}
!3 = !{i32 7, !"uwtable", i32 1}
!4 = !{!"clang version 13.0.0"}
!5 = !{!6, !6, i64 0}
!6 = !{!"int", !7, i64 0}
!7 = !{!"omnipotent char", !8, i64 0}
!8 = !{!"Simple C/C++ TBAA"}
